target datalayout = "e-m:e-p270:32:32-p271:32:32-p272:64:64-i64:64-i128:128-f80:128-n8:16:32:64-S128"
target triple = "x86_64-pc-linux-gnu"

%struct.crypto_aead_aes256gcm_state_ = type { [512 x i8] }

; Function Attrs: nounwind ssp uwtable
define dso_local i32 @crypto_aead_aes256gcm_encrypt_detached(ptr noundef nonnull %0, ptr noundef nonnull %1, ptr noundef %2, ptr noundef %3, i64 noundef %4, ptr noundef %5, i64 noundef %6, ptr noundef %7, ptr noundef nonnull %8, ptr noundef nonnull %9) #0 {
  %11 = alloca ptr, align 8
  %12 = alloca ptr, align 8
  %13 = alloca ptr, align 8
  %14 = alloca ptr, align 8
  %15 = alloca i64, align 8
  %16 = alloca ptr, align 8
  %17 = alloca i64, align 8
  %18 = alloca ptr, align 8
  %19 = alloca ptr, align 8
  %20 = alloca ptr, align 8
  %21 = alloca %struct.crypto_aead_aes256gcm_state_, align 16
  %22 = alloca i32, align 4
  store ptr %0, ptr %11, align 8
  store ptr %1, ptr %12, align 8
  store ptr %2, ptr %13, align 8
  store ptr %3, ptr %14, align 8
  store i64 %4, ptr %15, align 8
  store ptr %5, ptr %16, align 8
  store i64 %6, ptr %17, align 8
  store ptr %7, ptr %18, align 8
  store ptr %8, ptr %19, align 8
  store ptr %9, ptr %20, align 8
  call void @llvm.lifetime.start.p0(i64 512, ptr %21) #14
  call void @llvm.lifetime.start.p0(i64 4, ptr %22) #14
  %23 = load ptr, ptr %11, align 8
  call void @llvm.prefetch.p0(ptr %23, i32 0, i32 2, i32 1)
  %24 = load ptr, ptr %14, align 8
  call void @llvm.prefetch.p0(ptr %24, i32 0, i32 2, i32 1)
  %25 = load ptr, ptr %16, align 8
  call void @llvm.prefetch.p0(ptr %25, i32 0, i32 2, i32 1)
  %26 = load ptr, ptr %20, align 8
  %27 = call i32 @crypto_aead_aes256gcm_beforenm(ptr noundef %21, ptr noundef %26)
  %28 = load ptr, ptr %11, align 8
  %29 = load ptr, ptr %12, align 8
  %30 = load ptr, ptr %13, align 8
  %31 = load ptr, ptr %14, align 8
  %32 = load i64, ptr %15, align 8
  %33 = load ptr, ptr %16, align 8
  %34 = load i64, ptr %17, align 8
  %35 = load ptr, ptr %18, align 8
  %36 = load ptr, ptr %19, align 8
  %37 = call i32 @crypto_aead_aes256gcm_encrypt_detached_afternm(ptr noundef %28, ptr noundef %29, ptr noundef %30, ptr noundef %31, i64 noundef %32, ptr noundef %33, i64 noundef %34, ptr noundef %35, ptr noundef %36, ptr noundef %21)
  store i32 %37, ptr %22, align 4
  call void @sodium_memzero(ptr noundef %21, i64 noundef 512)
  %38 = load i32, ptr %22, align 4
  call void @llvm.lifetime.end.p0(i64 4, ptr %22) #14
  call void @llvm.lifetime.end.p0(i64 512, ptr %21) #14
  ret i32 %38
}

; Function Attrs: nounwind ssp uwtable
define dso_local i32 @crypto_aead_aes256gcm_encrypt(ptr noundef nonnull %0, ptr noundef %1, ptr noundef %2, i64 noundef %3, ptr noundef %4, i64 noundef %5, ptr noundef %6, ptr noundef nonnull %7, ptr noundef nonnull %8) #0 {
  %10 = alloca ptr, align 8
  %11 = alloca ptr, align 8
  %12 = alloca ptr, align 8
  %13 = alloca i64, align 8
  %14 = alloca ptr, align 8
  %15 = alloca i64, align 8
  %16 = alloca ptr, align 8
  %17 = alloca ptr, align 8
  %18 = alloca ptr, align 8
  %19 = alloca i32, align 4
  store ptr %0, ptr %10, align 8
  store ptr %1, ptr %11, align 8
  store ptr %2, ptr %12, align 8
  store i64 %3, ptr %13, align 8
  store ptr %4, ptr %14, align 8
  store i64 %5, ptr %15, align 8
  store ptr %6, ptr %16, align 8
  store ptr %7, ptr %17, align 8
  store ptr %8, ptr %18, align 8
  call void @llvm.lifetime.start.p0(i64 4, ptr %19) #14
  %20 = load ptr, ptr %10, align 8
  %21 = load ptr, ptr %10, align 8
  %22 = load i64, ptr %13, align 8
  %23 = getelementptr i8, ptr %21, i64 %22
  %24 = load ptr, ptr %12, align 8
  %25 = load i64, ptr %13, align 8
  %26 = load ptr, ptr %14, align 8
  %27 = load i64, ptr %15, align 8
  %28 = load ptr, ptr %16, align 8
  %29 = load ptr, ptr %17, align 8
  %30 = load ptr, ptr %18, align 8
  %31 = call i32 @crypto_aead_aes256gcm_encrypt_detached(ptr noundef %20, ptr noundef %23, ptr noundef null, ptr noundef %24, i64 noundef %25, ptr noundef %26, i64 noundef %27, ptr noundef %28, ptr noundef %29, ptr noundef %30)
  store i32 %31, ptr %19, align 4
  %32 = load ptr, ptr %11, align 8
  %33 = icmp ne ptr %32, null
  br i1 %33, label %34, label %44

34:                                               ; preds = %9
  %35 = load i32, ptr %19, align 4
  %36 = icmp eq i32 %35, 0
  br i1 %36, label %37, label %41

37:                                               ; preds = %34
  %38 = load i64, ptr %13, align 8
  %39 = add i64 %38, 16
  %40 = load ptr, ptr %11, align 8
  store i64 %39, ptr %40, align 8
  br label %43

41:                                               ; preds = %34
  %42 = load ptr, ptr %11, align 8
  store i64 0, ptr %42, align 8
  br label %43

43:                                               ; preds = %41, %37
  br label %44

44:                                               ; preds = %43, %9
  %45 = load i32, ptr %19, align 4
  call void @llvm.lifetime.end.p0(i64 4, ptr %19) #14
  ret i32 %45
}