; Function Attrs: nounwind ssp uwtable
define dso_local range(i32 -1, 1) i32 @crypto_aead_aes256gcm_encrypt(ptr noundef nonnull %0, ptr noundef writeonly captures(address_is_null) %1, ptr noundef readonly captures(none) %2, i64 noundef %3, ptr noundef captures(address_is_null) %4, i64 noundef %5, ptr noundef readnone captures(none) %6, ptr noundef nonnull readonly captures(none) %7, ptr noundef nonnull readonly captures(none) %8) local_unnamed_addr #3 {
  %10 = alloca %struct.crypto_aead_aes256gcm_state_, align 16
  %11 = getelementptr i8, ptr %0, i64 %3
  call void @llvm.lifetime.start.p0(i64 512, ptr nonnull %10) #14
  tail call void @llvm.prefetch.p0(ptr nonnull %0, i32 0, i32 2, i32 1)
  tail call void @llvm.prefetch.p0(ptr readonly %2, i32 0, i32 2, i32 1)
  tail call void @llvm.prefetch.p0(ptr %4, i32 0, i32 2, i32 1)
  %12 = call i32 @crypto_aead_aes256gcm_beforenm(ptr noundef %10, ptr noundef nonnull readonly %8)
  %13 = call i32 @crypto_aead_aes256gcm_encrypt_detached_afternm(ptr noundef nonnull %0, ptr noundef nonnull %11, ptr noundef null, ptr noundef readonly %2, i64 noundef %3, ptr noundef %4, i64 noundef %5, ptr readnone poison, ptr noundef nonnull readonly %7, ptr noundef %10)
  call void @sodium_memzero(ptr noundef nonnull %10, i64 noundef 512) #14
  call void @llvm.lifetime.end.p0(i64 512, ptr nonnull %10) #14
  %.not = icmp eq ptr %1, null
  br i1 %.not, label %16, label %.sink.split

.sink.split:                                      ; preds = %9
  %14 = icmp eq i32 %13, 0
  %15 = add i64 %3, 16
  %.sink = select i1 %14, i64 %15, i64 0
  store i64 %.sink, ptr %1, align 8
  br label %16

16:                                               ; preds = %.sink.split, %9
  ret i32 %13
}